; ModuleID = 'source-C-CXX/46/4800.c'
source_filename = "source-C-CXX/46/4800.c"
target datalayout = "e-m:e-p270:32:32-p271:32:32-p272:64:64-i64:64-f80:128-n8:16:32:64-S128"
target triple = "x86_64-pc-linux-gnu"

@.str = private unnamed_addr constant [3 x i8] c"%d\00", align 1
@.str.1 = private unnamed_addr constant [4 x i8] c"%d \00", align 1

; Function Attrs: nofree nounwind sspstrong uwtable
define dso_local i32 @main() local_unnamed_addr #0 {
  %1 = alloca i32, align 4
  %2 = alloca [100 x i32], align 16
  %3 = bitcast i32* %1 to i8*
  call void @llvm.lifetime.start.p0i8(i64 4, i8* nonnull %3) #3
  %4 = bitcast [100 x i32]* %2 to i8*
  call void @llvm.lifetime.start.p0i8(i64 400, i8* nonnull %4) #3
  %5 = call i32 (i8*, ...) @__isoc99_scanf(i8* getelementptr inbounds ([3 x i8], [3 x i8]* @.str, i64 0, i64 0), i32* nonnull %1)
  %6 = load i32, i32* %1, align 4, !tbaa !5
  %7 = icmp sgt i32 %6, 0
  br i1 %7, label %10, label %35

8:                                                ; preds = %10
  %9 = icmp sgt i32 %15, 0
  br i1 %9, label %18, label %35

10:                                               ; preds = %0, %10
  %11 = phi i64 [ %14, %10 ], [ 0, %0 ]
  %12 = getelementptr inbounds [100 x i32], [100 x i32]* %2, i64 0, i64 %11
  %13 = call i32 (i8*, ...) @__isoc99_scanf(i8* getelementptr inbounds ([3 x i8], [3 x i8]* @.str, i64 0, i64 0), i32* nonnull %12)
  %14 = add nuw nsw i64 %11, 1
  %15 = load i32, i32* %1, align 4, !tbaa !5
  %16 = sext i32 %15 to i64
  %17 = icmp slt i64 %14, %16
  br i1 %17, label %10, label %8, !llvm.loop !9

18:                                               ; preds = %8, %18
  %19 = phi i64 [ %31, %18 ], [ 0, %8 ]
  %20 = phi i32 [ %32, %18 ], [ %15, %8 ]
  %21 = add nsw i32 %20, -1
  %22 = sext i32 %21 to i64
  %23 = icmp slt i64 %19, %22
  %24 = sext i32 %20 to i64
  %25 = getelementptr inbounds [100 x i32], [100 x i32]* %2, i64 0, i64 %24
  %26 = xor i64 %19, -1
  %27 = getelementptr inbounds i32, i32* %25, i64 %26
  %28 = load i32, i32* %27, align 4, !tbaa !5
  %29 = select i1 %23, i8* getelementptr inbounds ([4 x i8], [4 x i8]* @.str.1, i64 0, i64 0), i8* getelementptr inbounds ([3 x i8], [3 x i8]* @.str, i64 0, i64 0)
  %30 = call i32 (i8*, ...) @printf(i8* nonnull dereferenceable(1) %29, i32 %28)
  %31 = add nuw nsw i64 %19, 1
  %32 = load i32, i32* %1, align 4, !tbaa !5
  %33 = sext i32 %32 to i64
  %34 = icmp slt i64 %31, %33
  br i1 %34, label %18, label %35, !llvm.loop !11

35:                                               ; preds = %18, %0, %8
  call void @llvm.lifetime.end.p0i8(i64 400, i8* nonnull %4) #3
  call void @llvm.lifetime.end.p0i8(i64 4, i8* nonnull %3) #3
  ret i32 0
}

; Function Attrs: argmemonly mustprogress nofree nosync nounwind willreturn
declare void @llvm.lifetime.start.p0i8(i64 immarg, i8* nocapture) #1

; Function Attrs: nofree nounwind
declare noundef i32 @__isoc99_scanf(i8* nocapture noundef readonly, ...) local_unnamed_addr #2

; Function Attrs: nofree nounwind
declare noundef i32 @printf(i8* nocapture noundef readonly, ...) local_unnamed_addr #2

; Function Attrs: argmemonly mustprogress nofree nosync nounwind willreturn
declare void @llvm.lifetime.end.p0i8(i64 immarg, i8* nocapture) #1


!llvm.module.flags = !{!0, !1, !2, !3}
!llvm.ident = !{!4}

!0 = !{i32 1, !"wchar_size", i32 4}
!1 = !{i32 7, !"PIC Level", i32 2}
!2 = !{i32 7, !"PIE Level", i32 2}
!3 = !{i32 7, !"uwtable", i32 1}
!4 = !{!"clang version 13.0.0"}
!5 = !{!6, !6, i64 0}
!6 = !{!"int", !7, i64 0}
!7 = !{!"omnipotent char", !8, i64 0}
!8 = !{!"Simple C/C++ TBAA"}
!9 = distinct !{!9, !10}
!10 = !{!"llvm.loop.mustprogress"}
!11 = distinct !{!11, !10}
